; Function Attrs: mustprogress nofree norecurse nosync nounwind willreturn memory(none) uwtable
define hidden range(i32 0, 2) i32 @psa_is_valid_key_id(i32 noundef %0, i32 noundef %1) local_unnamed_addr #0 {
  %3 = add i32 %0, -1
  %or.cond = icmp ult i32 %3, 1073741823
  %4 = icmp ne i32 %1, 0
  %5 = icmp sgt i32 %0, 1073741823
  %or.cond5 = and i1 %5, %4
  %narrow = or i1 %or.cond, %or.cond5
  %.0 = zext i1 %narrow to i32
  ret i32 %.0
}